EXPORTS
    _ZN4Foam12scotchDecomp5checkEiPKc @1
    _ZN4Foam12scotchDecomp5debugE @2 DATA
    _ZN4Foam12scotchDecomp8typeNameE @3 DATA
    _ZN4Foam12scotchDecomp9decomposeERKNS_4ListINS1_IiEEEERKNS_5FieldINS_6VectorIdEEEERKNS6_IdEE @4
    _ZN4Foam12scotchDecomp9decomposeERKNS_8fileNameERKNS_4ListIiEES7_RKNS_5FieldIdEERS5_ @5
    _ZN4Foam12scotchDecomp9decomposeERKNS_8polyMeshERKNS_4ListIiEERKNS_5FieldINS_6VectorIdEEEERKNS8_IdEE @6
    _ZN4Foam12scotchDecomp9decomposeERKNS_8polyMeshERKNS_5FieldINS_6VectorIdEEEERKNS4_IdEE @7
    _ZN4Foam12scotchDecompC1ERKNS_10dictionaryE @8
    _ZN4Foam12scotchDecompC2ERKNS_10dictionaryE @9
    _ZN4Foam12scotchDecompD0Ev @10
    _ZN4Foam12scotchDecompD1Ev @11
    _ZN4Foam19decompositionMethod31adddictionaryConstructorToTableINS_12scotchDecompEE3NewERKNS_10dictionaryE @12
    _ZN4Foam19decompositionMethod31adddictionaryConstructorToTableINS_12scotchDecompEEC1ERKNS_4wordE @13
    _ZN4Foam19decompositionMethod9decomposeERKNS_5FieldINS_6VectorIdEEEE @14
    _ZN4Foam19decompositionMethod9decomposeERKNS_5FieldINS_6VectorIdEEEERKNS1_IdEE @15
    _ZN4Foam22addscotchDecompToDebug8readDataERNS_7IstreamE @16
    _ZN4Foam22addscotchDecompToDebugD0Ev @17
    _ZN4Foam22addscotchDecompToDebugD1Ev @18
    _ZN4Foam23addscotchDecompToDebug_E @19 DATA
    _ZN4Foam4ListIiEC1ERKS1_ @20
    _ZN4Foam4wordC1EPKcb @21
    _ZN4Foam63addscotchDecompdictionaryConstructorTodecompositionMethodTable_E @22 DATA
    _ZN4Foam7PtrListINS_23decompositionConstraintEED1Ev @23
    _ZN4Foam9HashTableIPFNS_7autoPtrINS_19decompositionMethodEEERKNS_10dictionaryEENS_4wordENS_6string4hashEE3setERKS9_RKS8_b @24
    _ZN4Foam9HashTableIPFNS_7autoPtrINS_19decompositionMethodEEERKNS_10dictionaryEENS_4wordENS_6string4hashEE6resizeEi @25
    _ZNK4Foam12scotchDecomp13parallelAwareEv @26
    _ZNK4Foam12scotchDecomp4typeEv @27
    _ZNK4Foam22addscotchDecompToDebug9writeDataERNS_7OstreamE @28
    _ZNKSt5ctypeIcE8do_widenEc @29
    _ZTIN4Foam12scotchDecompE @30 DATA
    _ZTIN4Foam17simpleRegIOobjectE @31 DATA
    _ZTIN4Foam19decompositionMethodE @32 DATA
    _ZTIN4Foam22addscotchDecompToDebugE @33 DATA
    _ZTSN4Foam12scotchDecompE @34 DATA
    _ZTSN4Foam17simpleRegIOobjectE @35 DATA
    _ZTSN4Foam19decompositionMethodE @36 DATA
    _ZTSN4Foam22addscotchDecompToDebugE @37 DATA
    _ZTVN4Foam12scotchDecompE @38 DATA
    _ZTVN4Foam17simpleRegIOobjectE @39 DATA
    _ZTVN4Foam22addscotchDecompToDebugE @40 DATA
